target datalayout = "e-m:e-p270:32:32-p271:32:32-p272:64:64-i64:64-i128:128-f80:128-n8:16:32:64-S128"
target triple = "x86_64-pc-linux-gnu"

%struct.yyguts_t = type { ptr, ptr, ptr, i64, i64, ptr, i8, i32, i32, ptr, i32, i32, i32, i32, i32, ptr, i32, ptr, i32, i32, ptr, i32, i32, ptr }
%struct._YR_COMPILER = type { i32, i32, i32, i32, i32, [1 x %struct.__jmp_buf_tag], ptr, ptr, ptr, ptr, ptr, ptr, ptr, ptr, ptr, ptr, ptr, ptr, ptr, ptr, i32, i32, [4 x ptr], [4 x ptr], i32, i32, i32, [16 x ptr], i32, [16 x ptr], i32, [256 x i8], [1024 x i8], ptr, i16, [1024 x i8], ptr, %struct.rq, %struct.cs, ptr, i32 }
%struct.__jmp_buf_tag = type { [8 x i64], i32, %struct.__sigset_t }
%struct.__sigset_t = type { [16 x i64] }
%struct.rq = type { ptr, ptr }
%struct.cs = type { ptr, ptr }

@.str.24 = private unnamed_addr constant [28 x i8] c"yywarning(): %s line %d %s\0A\00", align 1
@.str.25 = private unnamed_addr constant [20 x i8] c"(file name missing)\00", align 1

; Function Attrs: nounwind uwtable
define ptr @yara_yyget_extra(ptr noundef %0) #0 {
  %2 = alloca ptr, align 8
  %3 = alloca ptr, align 8
  store ptr %0, ptr %2, align 8
  %4 = load ptr, ptr %2, align 8
  store ptr %4, ptr %3, align 8
  %5 = load ptr, ptr %3, align 8
  %6 = getelementptr inbounds %struct.yyguts_t, ptr %5, i32 0, i32 0
  %7 = load ptr, ptr %6, align 8
  ret ptr %7
}

; Function Attrs: nounwind uwtable
define void @yara_yywarning(ptr noundef %0, ptr noundef %1) #0 {
  %3 = alloca ptr, align 8
  %4 = alloca ptr, align 8
  %5 = alloca ptr, align 8
  %6 = alloca ptr, align 8
  store ptr %0, ptr %3, align 8
  store ptr %1, ptr %4, align 8
  %7 = load ptr, ptr %3, align 8
  %8 = call ptr @yara_yyget_extra(ptr noundef %7)
  store ptr %8, ptr %5, align 8
  %9 = load ptr, ptr %5, align 8
  %10 = getelementptr inbounds %struct._YR_COMPILER, ptr %9, i32 0, i32 28
  %11 = load i32, ptr %10, align 8
  %12 = icmp sgt i32 %11, 0
  br i1 %12, label %13, label %23

13:                                               ; preds = %2
  %14 = load ptr, ptr %5, align 8
  %15 = getelementptr inbounds %struct._YR_COMPILER, ptr %14, i32 0, i32 27
  %16 = load ptr, ptr %5, align 8
  %17 = getelementptr inbounds %struct._YR_COMPILER, ptr %16, i32 0, i32 28
  %18 = load i32, ptr %17, align 8
  %19 = sub nsw i32 %18, 1
  %20 = sext i32 %19 to i64
  %21 = getelementptr inbounds [16 x ptr], ptr %15, i64 0, i64 %20
  %22 = load ptr, ptr %21, align 8
  store ptr %22, ptr %6, align 8
  br label %24

23:                                               ; preds = %2
  store ptr null, ptr %6, align 8
  br label %24

24:                                               ; preds = %23, %13
  %25 = load ptr, ptr %6, align 8
  %26 = icmp ne ptr %25, null
  br i1 %26, label %27, label %29

27:                                               ; preds = %24
  %28 = load ptr, ptr %6, align 8
  br label %30

29:                                               ; preds = %24
  br label %30

30:                                               ; preds = %29, %27
  %31 = phi ptr [ %28, %27 ], [ @.str.25, %29 ]
  %32 = load ptr, ptr %5, align 8
  %33 = getelementptr inbounds %struct._YR_COMPILER, ptr %32, i32 0, i32 3
  %34 = load i32, ptr %33, align 4
  %35 = load ptr, ptr %4, align 8
  call void (ptr, ...) @cli_warnmsg(ptr noundef @.str.24, ptr noundef %31, i32 noundef %34, ptr noundef %35)
  ret void
}