; Function Attrs: nounwind uwtable
define void @yara_yywarning(ptr nocapture noundef readonly %0, ptr noundef %1) local_unnamed_addr #0 {
  %3 = load ptr, ptr %0, align 8
  %4 = getelementptr inbounds i8, ptr %3, i64 552
  %5 = load i32, ptr %4, align 8
  %6 = icmp sgt i32 %5, 0
  br i1 %6, label %7, label %13

7:                                                ; preds = %2
  %8 = getelementptr inbounds i8, ptr %3, i64 424
  %9 = add nsw i32 %5, -1
  %10 = zext nneg i32 %9 to i64
  %11 = getelementptr inbounds [16 x ptr], ptr %8, i64 0, i64 %10
  %12 = load ptr, ptr %11, align 8
  br label %13

13:                                               ; preds = %2, %7
  %.0 = phi ptr [ %12, %7 ], [ null, %2 ]
  %.not = icmp eq ptr %.0, null
  %14 = select i1 %.not, ptr @.str.25, ptr %.0
  %15 = getelementptr inbounds i8, ptr %3, i64 12
  %16 = load i32, ptr %15, align 4
  tail call void (ptr, ...) @cli_warnmsg(ptr noundef nonnull @.str.24, ptr noundef nonnull %14, i32 noundef %16, ptr noundef %1) #30
  ret void
}